target datalayout = "e-m:e-p270:32:32-p271:32:32-p272:64:64-i64:64-i128:128-f80:128-n8:16:32:64-S128"
target triple = "x86_64-pc-linux-gnu"

@UsePerfData = external global i8, align 1

; Function Attrs: mustprogress nounwind uwtable
define hidden void @_ZN24GCAdaptivePolicyCounters15update_countersEv(ptr noundef nonnull align 8 dereferenceable(280) %0) unnamed_addr #1 align 2 {
  %2 = alloca ptr, align 8
  store ptr %0, ptr %2, align 8
  %3 = load ptr, ptr %2, align 8
  %4 = load i8, ptr @UsePerfData, align 1
  %5 = trunc i8 %4 to i1
  br i1 %5, label %6, label %10

6:                                                ; preds = %1
  %7 = load ptr, ptr %3, align 8
  %8 = getelementptr inbounds ptr, ptr %7, i64 2
  %9 = load ptr, ptr %8, align 8
  call void %9(ptr noundef nonnull align 8 dereferenceable(280) %3)
  br label %10

10:                                               ; preds = %6, %1
  ret void
}