; Function Attrs: mustprogress nounwind uwtable
define hidden void @_ZN24GCAdaptivePolicyCounters15update_countersEv(ptr noundef nonnull align 8 dereferenceable(280) %0) unnamed_addr #0 align 2 {
  %2 = load i8, ptr @UsePerfData, align 1
  %3 = trunc i8 %2 to i1
  br i1 %3, label %4, label %8

4:                                                ; preds = %1
  %5 = load ptr, ptr %0, align 8
  %6 = getelementptr inbounds i8, ptr %5, i64 16
  %7 = load ptr, ptr %6, align 8
  tail call void %7(ptr noundef nonnull align 8 dereferenceable(280) %0) #4
  br label %8

8:                                                ; preds = %4, %1
  ret void
}